target datalayout = "e-m:e-p270:32:32-p271:32:32-p272:64:64-i64:64-i128:128-f80:128-n8:16:32:64-S128"
target triple = "x86_64-pc-linux-gnu"

%struct.rb_data_type_struct = type { ptr, %struct.anon, ptr, ptr, i64 }
%struct.anon = type { ptr, ptr, ptr, ptr, [1 x ptr] }

@eEC_GROUP = internal global i64 0, align 8
@eEC_POINT = internal global i64 0, align 8
@id_i_group = internal global i64 0, align 8
@ossl_ec_group_type = internal constant %struct.rb_data_type_struct { ptr @.str.61, %struct.anon { ptr null, ptr @ossl_ec_group_free, ptr null, ptr null, [1 x ptr] zeroinitializer }, ptr null, ptr null, i64 33 }, align 8
@.str.59 = private unnamed_addr constant [28 x i8] c"EC_GROUP is not initialized\00", align 1
@ossl_ec_point_type = internal constant %struct.rb_data_type_struct { ptr @.str.87, %struct.anon { ptr null, ptr @ossl_ec_point_free, ptr null, ptr null, [1 x ptr] zeroinitializer }, ptr null, ptr null, i64 33 }, align 8
@.str.85 = private unnamed_addr constant [28 x i8] c"EC_POINT is not initialized\00", align 1
@.str.102 = private unnamed_addr constant [13 x i8] c"EC_POINT_cmp\00", align 1

; Function Attrs: nounwind sspstrong uwtable
define internal i64 @ossl_ec_point_eql(i64 noundef %0, i64 noundef %1) #0 {
  %3 = alloca i64, align 8
  %4 = alloca i64, align 8
  %5 = alloca i64, align 8
  %6 = alloca ptr, align 8
  %7 = alloca ptr, align 8
  %8 = alloca i64, align 8
  %9 = alloca i64, align 8
  %10 = alloca ptr, align 8
  %11 = alloca i32, align 4
  store i64 %0, ptr %4, align 8, !tbaa !6
  store i64 %1, ptr %5, align 8, !tbaa !6
  call void @llvm.lifetime.start.p0(i64 8, ptr %6) #19
  call void @llvm.lifetime.start.p0(i64 8, ptr %7) #19
  call void @llvm.lifetime.start.p0(i64 8, ptr %8) #19
  %12 = load i64, ptr %4, align 8, !tbaa !6
  %13 = load i64, ptr @id_i_group, align 8, !tbaa !6
  %14 = call i64 @rb_attr_get(i64 noundef %12, i64 noundef %13)
  store i64 %14, ptr %8, align 8, !tbaa !6
  call void @llvm.lifetime.start.p0(i64 8, ptr %9) #19
  %15 = load i64, ptr %5, align 8, !tbaa !6
  %16 = load i64, ptr @id_i_group, align 8, !tbaa !6
  %17 = call i64 @rb_attr_get(i64 noundef %15, i64 noundef %16)
  store i64 %17, ptr %9, align 8, !tbaa !6
  call void @llvm.lifetime.start.p0(i64 8, ptr %10) #19
  %18 = load i64, ptr %8, align 8, !tbaa !6
  %19 = load i64, ptr %9, align 8, !tbaa !6
  %20 = call i64 @ossl_ec_group_eql(i64 noundef %18, i64 noundef %19)
  %21 = icmp eq i64 %20, 0
  br i1 %21, label %22, label %23

22:                                               ; preds = %2
  store i64 0, ptr %3, align 8
  store i32 1, ptr %11, align 4
  br label %63

23:                                               ; preds = %2
  br label %24

24:                                               ; preds = %23
  %25 = load i64, ptr %4, align 8, !tbaa !6
  %26 = call ptr @rb_check_typeddata(i64 noundef %25, ptr noundef @ossl_ec_point_type)
  store ptr %26, ptr %6, align 8, !tbaa !37
  %27 = load ptr, ptr %6, align 8, !tbaa !37
  %28 = icmp eq ptr %27, null
  br i1 %28, label %29, label %31

29:                                               ; preds = %24
  %30 = load i64, ptr @eEC_POINT, align 8, !tbaa !6
  call void (i64, ptr, ...) @ossl_raise(i64 noundef %30, ptr noundef @.str.85) #20
  unreachable

31:                                               ; preds = %24
  br label %32

32:                                               ; preds = %31
  br label %33

33:                                               ; preds = %32
  br label %34

34:                                               ; preds = %33
  %35 = load i64, ptr %5, align 8, !tbaa !6
  %36 = call ptr @rb_check_typeddata(i64 noundef %35, ptr noundef @ossl_ec_point_type)
  store ptr %36, ptr %7, align 8, !tbaa !37
  %37 = load ptr, ptr %7, align 8, !tbaa !37
  %38 = icmp eq ptr %37, null
  br i1 %38, label %39, label %41

39:                                               ; preds = %34
  %40 = load i64, ptr @eEC_POINT, align 8, !tbaa !6
  call void (i64, ptr, ...) @ossl_raise(i64 noundef %40, ptr noundef @.str.85) #20
  unreachable

41:                                               ; preds = %34
  br label %42

42:                                               ; preds = %41
  br label %43

43:                                               ; preds = %42
  br label %44

44:                                               ; preds = %43
  %45 = load i64, ptr %8, align 8, !tbaa !6
  %46 = call ptr @rb_check_typeddata(i64 noundef %45, ptr noundef @ossl_ec_group_type)
  store ptr %46, ptr %10, align 8, !tbaa !33
  %47 = load ptr, ptr %10, align 8, !tbaa !33
  %48 = icmp eq ptr %47, null
  br i1 %48, label %49, label %51

49:                                               ; preds = %44
  %50 = load i64, ptr @eEC_GROUP, align 8, !tbaa !6
  call void (i64, ptr, ...) @ossl_raise(i64 noundef %50, ptr noundef @.str.59) #20
  unreachable

51:                                               ; preds = %44
  br label %52

52:                                               ; preds = %51
  br label %53

53:                                               ; preds = %52
  %54 = load ptr, ptr %10, align 8, !tbaa !33
  %55 = load ptr, ptr %6, align 8, !tbaa !37
  %56 = load ptr, ptr %7, align 8, !tbaa !37
  %57 = call ptr @ossl_bn_ctx_get()
  %58 = call i32 @EC_POINT_cmp(ptr noundef %54, ptr noundef %55, ptr noundef %56, ptr noundef %57)
  switch i32 %58, label %61 [
    i32 0, label %59
    i32 1, label %60
  ]

59:                                               ; preds = %53
  store i64 20, ptr %3, align 8
  store i32 1, ptr %11, align 4
  br label %63

60:                                               ; preds = %53
  store i64 0, ptr %3, align 8
  store i32 1, ptr %11, align 4
  br label %63

61:                                               ; preds = %53
  %62 = load i64, ptr @eEC_POINT, align 8, !tbaa !6
  call void (i64, ptr, ...) @ossl_raise(i64 noundef %62, ptr noundef @.str.102) #20
  unreachable

63:                                               ; preds = %60, %59, %22
  call void @llvm.lifetime.end.p0(i64 8, ptr %10) #19
  call void @llvm.lifetime.end.p0(i64 8, ptr %9) #19
  call void @llvm.lifetime.end.p0(i64 8, ptr %8) #19
  call void @llvm.lifetime.end.p0(i64 8, ptr %7) #19
  call void @llvm.lifetime.end.p0(i64 8, ptr %6) #19
  %64 = load i64, ptr %3, align 8
  ret i64 %64
}