; Function Attrs: nounwind sspstrong uwtable
define internal range(i64 0, 21) i64 @ossl_ec_point_eql(i64 noundef %0, i64 noundef %1) #0 {
  %3 = load i64, ptr @id_i_group, align 8, !tbaa !6
  %4 = tail call i64 @rb_attr_get(i64 noundef %0, i64 noundef %3) #7
  %5 = load i64, ptr @id_i_group, align 8, !tbaa !6
  %6 = tail call i64 @rb_attr_get(i64 noundef %1, i64 noundef %5) #7
  %7 = tail call i64 @ossl_ec_group_eql(i64 noundef %4, i64 noundef %6)
  %8 = icmp eq i64 %7, 0
  br i1 %8, label %30, label %9

9:                                                ; preds = %2
  %10 = tail call ptr @rb_check_typeddata(i64 noundef %0, ptr noundef nonnull @ossl_ec_point_type) #7
  %11 = icmp eq ptr %10, null
  br i1 %11, label %12, label %14

12:                                               ; preds = %9
  %13 = load i64, ptr @eEC_POINT, align 8, !tbaa !6
  tail call void (i64, ptr, ...) @ossl_raise(i64 noundef %13, ptr noundef nonnull @.str.85) #9
  unreachable

14:                                               ; preds = %9
  %15 = tail call ptr @rb_check_typeddata(i64 noundef %1, ptr noundef nonnull @ossl_ec_point_type) #7
  %16 = icmp eq ptr %15, null
  br i1 %16, label %17, label %19

17:                                               ; preds = %14
  %18 = load i64, ptr @eEC_POINT, align 8, !tbaa !6
  tail call void (i64, ptr, ...) @ossl_raise(i64 noundef %18, ptr noundef nonnull @.str.85) #9
  unreachable

19:                                               ; preds = %14
  %20 = tail call ptr @rb_check_typeddata(i64 noundef %4, ptr noundef nonnull @ossl_ec_group_type) #7
  %21 = icmp eq ptr %20, null
  br i1 %21, label %22, label %24

22:                                               ; preds = %19
  %23 = load i64, ptr @eEC_GROUP, align 8, !tbaa !6
  tail call void (i64, ptr, ...) @ossl_raise(i64 noundef %23, ptr noundef nonnull @.str.59) #9
  unreachable

24:                                               ; preds = %19
  %25 = tail call ptr @ossl_bn_ctx_get() #7
  %26 = tail call i32 @EC_POINT_cmp(ptr noundef nonnull %20, ptr noundef nonnull %10, ptr noundef nonnull %15, ptr noundef %25) #7
  switch i32 %26, label %28 [
    i32 0, label %30
    i32 1, label %27
  ]

27:                                               ; preds = %24
  br label %30

28:                                               ; preds = %24
  %29 = load i64, ptr @eEC_POINT, align 8, !tbaa !6
  tail call void (i64, ptr, ...) @ossl_raise(i64 noundef %29, ptr noundef nonnull @.str.102) #9
  unreachable

30:                                               ; preds = %24, %2, %27
  %.0 = phi i64 [ 0, %27 ], [ 0, %2 ], [ 20, %24 ]
  ret i64 %.0
}